(lp1
S'/home/avikbasu/dev/DeepVideos/datasets/../../data/HorseRiding/v_HorseRiding_g14_c02.avi'
p2
aS'/home/avikbasu/dev/DeepVideos/datasets/../../data/ASLAN/7-3675.avi'
p3
aS'/home/avikbasu/dev/DeepVideos/datasets/../../data/ASLAN/7-0611.avi'
p4
aS'/home/avikbasu/dev/DeepVideos/datasets/../../data/ASLAN/7-0953.avi'
p5
aS'/home/avikbasu/dev/DeepVideos/datasets/../../data/ASLAN/7-0216.avi'
p6
aS'/home/avikbasu/dev/DeepVideos/datasets/../../data/ASLAN/7-1940.avi'
p7
aS'/home/avikbasu/dev/DeepVideos/datasets/../../data/ASLAN/7-0057.avi'
p8
aS'/home/avikbasu/dev/DeepVideos/datasets/../../data/ASLAN/7-0178.avi'
p9
aS'/home/avikbasu/dev/DeepVideos/datasets/../../data/ASLAN/7-3494.avi'
p10
aS'/home/avikbasu/dev/DeepVideos/datasets/../../data/ASLAN/7-0275.avi'
p11
aS'/home/avikbasu/dev/DeepVideos/datasets/../../data/ASLAN/7-2555.avi'
p12
aS'/home/avikbasu/dev/DeepVideos/datasets/../../data/ASLAN/7-1410.avi'
p13
aS'/home/avikbasu/dev/DeepVideos/datasets/../../data/ASLAN/7-0202.avi'
p14
aS'/home/avikbasu/dev/DeepVideos/datasets/../../data/ASLAN/7-2809.avi'
p15
aS'/home/avikbasu/dev/DeepVideos/datasets/../../data/ASLAN/7-3685.avi'
p16
aS'/home/avikbasu/dev/DeepVideos/datasets/../../data/ASLAN/7-0622.avi'
p17
aS'/home/avikbasu/dev/DeepVideos/datasets/../../data/ASLAN/7-0510.avi'
p18
aS'/home/avikbasu/dev/DeepVideos/datasets/../../data/ASLAN/7-1899.avi'
p19
aS'/home/avikbasu/dev/DeepVideos/datasets/../../data/ASLAN/7-2943.avi'
p20
aS'/home/avikbasu/dev/DeepVideos/datasets/../../data/ASLAN/7-3415.avi'
p21
aS'/home/avikbasu/dev/DeepVideos/datasets/../../data/ASLAN/7-1002.avi'
p22
aS'/home/avikbasu/dev/DeepVideos/datasets/../../data/ASLAN/7-1840.avi'
p23
aS'/home/avikbasu/dev/DeepVideos/datasets/../../data/ASLAN/7-1217.avi'
p24
aS'/home/avikbasu/dev/DeepVideos/datasets/../../data/ASLAN/7-2924.avi'
p25
aS'/home/avikbasu/dev/DeepVideos/datasets/../../data/ASLAN/7-1845.avi'
p26
aS'/home/avikbasu/dev/DeepVideos/datasets/../../data/ASLAN/7-2084.avi'
p27
aS'/home/avikbasu/dev/DeepVideos/datasets/../../data/ASLAN/7-1214.avi'
p28
aS'/home/avikbasu/dev/DeepVideos/datasets/../../data/ASLAN/7-0318.avi'
p29
aS'/home/avikbasu/dev/DeepVideos/datasets/../../data/ASLAN/7-1859.avi'
p30
aS'/home/avikbasu/dev/DeepVideos/datasets/../../data/ASLAN/7-0039.avi'
p31
aS'/home/avikbasu/dev/DeepVideos/datasets/../../data/ASLAN/7-2202.avi'
p32
aS'/home/avikbasu/dev/DeepVideos/datasets/../../data/ASLAN/7-0147.avi'
p33
aS'/home/avikbasu/dev/DeepVideos/datasets/../../data/ASLAN/7-0233.avi'
p34
aS'/home/avikbasu/dev/DeepVideos/datasets/../../data/ASLAN/7-2619.avi'
p35
aS'/home/avikbasu/dev/DeepVideos/datasets/../../data/ASLAN/7-1554.avi'
p36
aS'/home/avikbasu/dev/DeepVideos/datasets/../../data/ASLAN/7-0994.avi'
p37
aS'/home/avikbasu/dev/DeepVideos/datasets/../../data/ASLAN/7-2057.avi'
p38
aS'/home/avikbasu/dev/DeepVideos/datasets/../../data/ASLAN/7-1315.avi'
p39
aS'/home/avikbasu/dev/DeepVideos/datasets/../../data/ASLAN/7-2808.avi'
p40
aS'/home/avikbasu/dev/DeepVideos/datasets/../../data/ASLAN/7-1844.avi'
p41
aS'/home/avikbasu/dev/DeepVideos/datasets/../../data/ASLAN/7-1225.avi'
p42
aS'/home/avikbasu/dev/DeepVideos/datasets/../../data/ASLAN/7-3686.avi'
p43
aS'/home/avikbasu/dev/DeepVideos/datasets/../../data/ASLAN/7-0212.avi'
p44
aS'/home/avikbasu/dev/DeepVideos/datasets/../../data/ASLAN/7-2945.avi'
p45
aS'/home/avikbasu/dev/DeepVideos/datasets/../../data/ASLAN/7-0802.avi'
p46
aS'/home/avikbasu/dev/DeepVideos/datasets/../../data/ASLAN/7-0998.avi'
p47
aS'/home/avikbasu/dev/DeepVideos/datasets/../../data/ASLAN/7-2799.avi'
p48
aS'/home/avikbasu/dev/DeepVideos/datasets/../../data/ASLAN/7-2648.avi'
p49
aS'/home/avikbasu/dev/DeepVideos/datasets/../../data/ASLAN/7-1852.avi'
p50
aS'/home/avikbasu/dev/DeepVideos/datasets/../../data/ASLAN/7-0206.avi'
p51
aS'/home/avikbasu/dev/DeepVideos/datasets/../../data/ASLAN/7-0664.avi'
p52
aS'/home/avikbasu/dev/DeepVideos/datasets/../../data/ASLAN/7-3488.avi'
p53
aS'/home/avikbasu/dev/DeepVideos/datasets/../../data/ASLAN/7-2941.avi'
p54
aS'/home/avikbasu/dev/DeepVideos/datasets/../../data/ASLAN/7-3427.avi'
p55
aS'/home/avikbasu/dev/DeepVideos/datasets/../../data/ASLAN/7-2944.avi'
p56
aS'/home/avikbasu/dev/DeepVideos/datasets/../../data/ASLAN/7-2597.avi'
p57
aS'/home/avikbasu/dev/DeepVideos/datasets/../../data/ASLAN/7-0218.avi'
p58
aS'/home/avikbasu/dev/DeepVideos/datasets/../../data/ASLAN/7-3608.avi'
p59
aS'/home/avikbasu/dev/DeepVideos/datasets/../../data/ASLAN/7-0214.avi'
p60
aS'/home/avikbasu/dev/DeepVideos/datasets/../../data/ASLAN/7-0540.avi'
p61
aS'/home/avikbasu/dev/DeepVideos/datasets/../../data/ASLAN/7-0179.avi'
p62
aS'/home/avikbasu/dev/DeepVideos/datasets/../../data/ASLAN/7-2715.avi'
p63
aS'/home/avikbasu/dev/DeepVideos/datasets/../../data/ASLAN/7-3451.avi'
p64
aS'/home/avikbasu/dev/DeepVideos/datasets/../../data/ASLAN/7-3554.avi'
p65
aS'/home/avikbasu/dev/DeepVideos/datasets/../../data/ASLAN/7-1064.avi'
p66
aS'/home/avikbasu/dev/DeepVideos/datasets/../../data/ASLAN/7-0615.avi'
p67
aS'/home/avikbasu/dev/DeepVideos/datasets/../../data/ASLAN/7-2573.avi'
p68
aS'/home/avikbasu/dev/DeepVideos/datasets/../../data/ASLAN/7-1085.avi'
p69
aS'/home/avikbasu/dev/DeepVideos/datasets/../../data/ASLAN/7-2579.avi'
p70
aS'/home/avikbasu/dev/DeepVideos/datasets/../../data/ASLAN/7-0471.avi'
p71
aS'/home/avikbasu/dev/DeepVideos/datasets/../../data/ASLAN/7-2817.avi'
p72
aS'/home/avikbasu/dev/DeepVideos/datasets/../../data/ASLAN/7-2765.avi'
p73
aS'/home/avikbasu/dev/DeepVideos/datasets/../../data/ASLAN/7-2199.avi'
p74
aS'/home/avikbasu/dev/DeepVideos/datasets/../../data/ASLAN/7-2903.avi'
p75
aS'/home/avikbasu/dev/DeepVideos/datasets/../../data/ASLAN/7-3482.avi'
p76
aS'/home/avikbasu/dev/DeepVideos/datasets/../../data/ASLAN/7-1248.avi'
p77
aS'/home/avikbasu/dev/DeepVideos/datasets/../../data/ASLAN/7-2938.avi'
p78
aS'/home/avikbasu/dev/DeepVideos/datasets/../../data/ASLAN/7-2525.avi'
p79
aS'/home/avikbasu/dev/DeepVideos/datasets/../../data/ASLAN/7-3356.avi'
p80
aS'/home/avikbasu/dev/DeepVideos/datasets/../../data/ASLAN/7-2537.avi'
p81
aS'/home/avikbasu/dev/DeepVideos/datasets/../../data/ASLAN/7-0208.avi'
p82
aS'/home/avikbasu/dev/DeepVideos/datasets/../../data/ASLAN/7-1022.avi'
p83
aS'/home/avikbasu/dev/DeepVideos/datasets/../../data/ASLAN/7-1297.avi'
p84
aS'/home/avikbasu/dev/DeepVideos/datasets/../../data/ASLAN/7-2814.avi'
p85
aS'/home/avikbasu/dev/DeepVideos/datasets/../../data/ASLAN/7-2788.avi'
p86
aS'/home/avikbasu/dev/DeepVideos/datasets/../../data/ASLAN/7-0175.avi'
p87
aS'/home/avikbasu/dev/DeepVideos/datasets/../../data/ASLAN/7-2203.avi'
p88
aS'/home/avikbasu/dev/DeepVideos/datasets/../../data/ASLAN/7-0544.avi'
p89
aS'/home/avikbasu/dev/DeepVideos/datasets/../../data/ASLAN/7-0749.avi'
p90
aS'/home/avikbasu/dev/DeepVideos/datasets/../../data/ASLAN/7-3556.avi'
p91
aS'/home/avikbasu/dev/DeepVideos/datasets/../../data/ASLAN/7-0165.avi'
p92
aS'/home/avikbasu/dev/DeepVideos/datasets/../../data/ASLAN/7-2198.avi'
p93
aS'/home/avikbasu/dev/DeepVideos/datasets/../../data/ASLAN/7-2455.avi'
p94
aS'/home/avikbasu/dev/DeepVideos/datasets/../../data/ASLAN/7-2914.avi'
p95
aS'/home/avikbasu/dev/DeepVideos/datasets/../../data/ASLAN/7-1927.avi'
p96
aS'/home/avikbasu/dev/DeepVideos/datasets/../../data/ASLAN/7-2183.avi'
p97
aS'/home/avikbasu/dev/DeepVideos/datasets/../../data/ASLAN/7-2613.avi'
p98
aS'/home/avikbasu/dev/DeepVideos/datasets/../../data/ASLAN/7-1989.avi'
p99
aS'/home/avikbasu/dev/DeepVideos/datasets/../../data/ASLAN/7-1946.avi'
p100
aS'/home/avikbasu/dev/DeepVideos/datasets/../../data/ASLAN/7-2108.avi'
p101
aS'/home/avikbasu/dev/DeepVideos/datasets/../../data/ASLAN/7-0227.avi'
p102
aS'/home/avikbasu/dev/DeepVideos/datasets/../../data/ASLAN/7-0958.avi'
p103
aS'/home/avikbasu/dev/DeepVideos/datasets/../../data/ASLAN/7-0213.avi'
p104
aS'/home/avikbasu/dev/DeepVideos/datasets/../../data/ASLAN/7-2783.avi'
p105
aS'/home/avikbasu/dev/DeepVideos/datasets/../../data/ASLAN/7-1418.avi'
p106
aS'/home/avikbasu/dev/DeepVideos/datasets/../../data/ASLAN/7-3592.avi'
p107
aS'/home/avikbasu/dev/DeepVideos/datasets/../../data/ASLAN/7-3419.avi'
p108
aS'/home/avikbasu/dev/DeepVideos/datasets/../../data/ASLAN/7-0164.avi'
p109
aS'/home/avikbasu/dev/DeepVideos/datasets/../../data/ASLAN/7-0847.avi'
p110
aS'/home/avikbasu/dev/DeepVideos/datasets/../../data/ASLAN/7-0146.avi'
p111
aS'/home/avikbasu/dev/DeepVideos/datasets/../../data/ASLAN/7-2021.avi'
p112
aS'/home/avikbasu/dev/DeepVideos/datasets/../../data/ASLAN/7-1616.avi'
p113
aS'/home/avikbasu/dev/DeepVideos/datasets/../../data/ASLAN/7-2201.avi'
p114
aS'/home/avikbasu/dev/DeepVideos/datasets/../../data/ASLAN/7-2818.avi'
p115
aS'/home/avikbasu/dev/DeepVideos/datasets/../../data/ASLAN/7-0334.avi'
p116
aS'/home/avikbasu/dev/DeepVideos/datasets/../../data/ASLAN/7-2598.avi'
p117
aS'/home/avikbasu/dev/DeepVideos/datasets/../../data/ASLAN/7-2056.avi'
p118
aS'/home/avikbasu/dev/DeepVideos/datasets/../../data/ASLAN/7-3234.avi'
p119
aS'/home/avikbasu/dev/DeepVideos/datasets/../../data/ASLAN/7-1433.avi'
p120
aS'/home/avikbasu/dev/DeepVideos/datasets/../../data/ASLAN/7-0209.avi'
p121
aS'/home/avikbasu/dev/DeepVideos/datasets/../../data/ASLAN/7-1001.avi'
p122
aS'/home/avikbasu/dev/DeepVideos/datasets/../../data/ASLAN/7-1153.avi'
p123
aS'/home/avikbasu/dev/DeepVideos/datasets/../../data/ASLAN/7-1877.avi'
p124
aS'/home/avikbasu/dev/DeepVideos/datasets/../../data/ASLAN/7-2716.avi'
p125
aS'/home/avikbasu/dev/DeepVideos/datasets/../../data/ASLAN/7-0207.avi'
p126
aS'/home/avikbasu/dev/DeepVideos/datasets/../../data/ASLAN/7-1006.avi'
p127
aS'/home/avikbasu/dev/DeepVideos/datasets/../../data/ASLAN/7-0520.avi'
p128
aS'/home/avikbasu/dev/DeepVideos/datasets/../../data/ASLAN/7-0128.avi'
p129
aS'/home/avikbasu/dev/DeepVideos/datasets/../../data/ASLAN/7-2574.avi'
p130
aS'/home/avikbasu/dev/DeepVideos/datasets/../../data/ASLAN/7-3323.avi'
p131
aS'/home/avikbasu/dev/DeepVideos/datasets/../../data/ASLAN/7-0211.avi'
p132
aS'/home/avikbasu/dev/DeepVideos/datasets/../../data/ASLAN/7-0293.avi'
p133
aS'/home/avikbasu/dev/DeepVideos/datasets/../../data/ASLAN/7-2622.avi'
p134
aS'/home/avikbasu/dev/DeepVideos/datasets/../../data/ASLAN/7-2022.avi'
p135
aS'/home/avikbasu/dev/DeepVideos/datasets/../../data/ASLAN/7-1670.avi'
p136
aS'/home/avikbasu/dev/DeepVideos/datasets/../../data/ASLAN/7-0180.avi'
p137
aS'/home/avikbasu/dev/DeepVideos/datasets/../../data/ASLAN/7-1000.avi'
p138
aS'/home/avikbasu/dev/DeepVideos/datasets/../../data/ASLAN/7-1990.avi'
p139
aS'/home/avikbasu/dev/DeepVideos/datasets/../../data/ASLAN/7-0966.avi'
p140
aS'/home/avikbasu/dev/DeepVideos/datasets/../../data/ASLAN/7-2617.avi'
p141
aS'/home/avikbasu/dev/DeepVideos/datasets/../../data/ASLAN/7-1625.avi'
p142
aS'/home/avikbasu/dev/DeepVideos/datasets/../../data/ASLAN/7-2188.avi'
p143
aS'/home/avikbasu/dev/DeepVideos/datasets/../../data/ASLAN/7-3151.avi'
p144
aS'/home/avikbasu/dev/DeepVideos/datasets/../../data/ASLAN/7-2810.avi'
p145
aS'/home/avikbasu/dev/DeepVideos/datasets/../../data/ASLAN/7-2060.avi'
p146
aS'/home/avikbasu/dev/DeepVideos/datasets/../../data/ASLAN/7-0215.avi'
p147
aS'/home/avikbasu/dev/DeepVideos/datasets/../../data/ASLAN/7-1046.avi'
p148
aS'/home/avikbasu/dev/DeepVideos/datasets/../../data/ASLAN/7-0582.avi'
p149
aS'/home/avikbasu/dev/DeepVideos/datasets/../../data/ASLAN/7-3492.avi'
p150
aS'/home/avikbasu/dev/DeepVideos/datasets/../../data/ASLAN/7-0571.avi'
p151
aS'/home/avikbasu/dev/DeepVideos/datasets/../../data/ASLAN/7-0161.avi'
p152
aS'/home/avikbasu/dev/DeepVideos/datasets/../../data/ASLAN/7-1212.avi'
p153
aS'/home/avikbasu/dev/DeepVideos/datasets/../../data/ASLAN/7-2087.avi'
p154
aS'/home/avikbasu/dev/DeepVideos/datasets/../../data/ASLAN/7-2811.avi'
p155
aS'/home/avikbasu/dev/DeepVideos/datasets/../../data/ASLAN/7-0633.avi'
p156
aS'/home/avikbasu/dev/DeepVideos/datasets/../../data/ASLAN/7-3609.avi'
p157
aS'/home/avikbasu/dev/DeepVideos/datasets/../../data/ASLAN/7-0983.avi'
p158
aS'/home/avikbasu/dev/DeepVideos/datasets/../../data/ASLAN/7-1667.avi'
p159
aS'/home/avikbasu/dev/DeepVideos/datasets/../../data/ASLAN/7-0982.avi'
p160
aS'/home/avikbasu/dev/DeepVideos/datasets/../../data/ASLAN/7-1655.avi'
p161
aS'/home/avikbasu/dev/DeepVideos/datasets/../../data/ASLAN/7-2626.avi'
p162
aS'/home/avikbasu/dev/DeepVideos/datasets/../../data/ASLAN/7-0999.avi'
p163
aS'/home/avikbasu/dev/DeepVideos/datasets/../../data/ASLAN/7-0812.avi'
p164
aS'/home/avikbasu/dev/DeepVideos/datasets/../../data/ASLAN/7-2182.avi'
p165
aS'/home/avikbasu/dev/DeepVideos/datasets/../../data/ASLAN/7-1999.avi'
p166
aS'/home/avikbasu/dev/DeepVideos/datasets/../../data/ASLAN/7-2062.avi'
p167
aS'/home/avikbasu/dev/DeepVideos/datasets/../../data/ASLAN/7-3560.avi'
p168
aS'/home/avikbasu/dev/DeepVideos/datasets/../../data/ASLAN/7-2109.avi'
p169
aS'/home/avikbasu/dev/DeepVideos/datasets/../../data/ASLAN/7-2159.avi'
p170
aS'/home/avikbasu/dev/DeepVideos/datasets/../../data/ASLAN/7-0774.avi'
p171
aS'/home/avikbasu/dev/DeepVideos/datasets/../../data/ASLAN/7-2200.avi'
p172
aS'/home/avikbasu/dev/DeepVideos/datasets/../../data/ASLAN/7-3053.avi'
p173
aS'/home/avikbasu/dev/DeepVideos/datasets/../../data/ASLAN/7-1003.avi'
p174
aS'/home/avikbasu/dev/DeepVideos/datasets/../../data/ASLAN/7-2806.avi'
p175
aS'/home/avikbasu/dev/DeepVideos/datasets/../../data/ASLAN/7-1220.avi'
p176
aS'/home/avikbasu/dev/DeepVideos/datasets/../../data/ASLAN/7-1137.avi'
p177
aS'/home/avikbasu/dev/DeepVideos/datasets/../../data/PushUps/v_PushUps_g16_c04.avi'
p178
aS'/home/avikbasu/dev/DeepVideos/datasets/../../data/PushUps/v_PushUps_g16_c03.avi'
p179
aS'/home/avikbasu/dev/DeepVideos/datasets/../../data/BlowingCandles/v_BlowingCandles_g05_c03.avi'
p180
aS'/home/avikbasu/dev/DeepVideos/datasets/../../data/FieldHockeyPenalty/v_FieldHockeyPenalty_g03_c03.avi'
p181
aS'/home/avikbasu/dev/DeepVideos/datasets/../../data/SkyDiving/v_SkyDiving_g02_c01.avi'
p182
a.