(lp1
S'/home/avikbasu/dev/DeepVideos/datasets/../../data/ASLAN_AVI.zip'
p2
aS'/home/avikbasu/dev/DeepVideos/datasets/../../data/HorseRiding/v_HorseRiding_g15_c01.avi'
p3
aS'/home/avikbasu/dev/DeepVideos/datasets/../../data/ASLAN/7-0914.avi'
p4
aS'/home/avikbasu/dev/DeepVideos/datasets/../../data/ASLAN/7-0851.avi'
p5
aS'/home/avikbasu/dev/DeepVideos/datasets/../../data/Basketball/v_Basketball_g12_c01.avi'
p6
a.